; Function Attrs: mustprogress uwtable
define dso_local noundef zeroext i1 @_ZN4Json6Reader11readCommentEv(ptr noundef nonnull align 8 dereferenceable(267) %0) local_unnamed_addr #2 align 2 {
  %2 = getelementptr inbounds i8, ptr %0, i64 208
  %3 = load ptr, ptr %2, align 8
  %4 = getelementptr inbounds i8, ptr %3, i64 -1
  %5 = getelementptr inbounds i8, ptr %0, i64 200
  %6 = load ptr, ptr %5, align 8
  %7 = icmp eq ptr %3, %6
  br i1 %7, label %_ZN4Json6Reader17readCStyleCommentEv.exit.thread32, label %_ZN4Json6Reader11getNextCharEv.exit

_ZN4Json6Reader11getNextCharEv.exit:              ; preds = %1
  %8 = getelementptr inbounds i8, ptr %3, i64 1
  store ptr %8, ptr %2, align 8
  %9 = load i8, ptr %3, align 1
  switch i8 %9, label %_ZN4Json6Reader17readCStyleCommentEv.exit.thread32 [
    i8 42, label %10
    i8 47, label %.preheader
  ]

10:                                               ; preds = %_ZN4Json6Reader11getNextCharEv.exit
  %.not4.i = icmp eq ptr %8, %6
  br i1 %.not4.i, label %_ZN4Json6Reader17readCStyleCommentEv.exit.thread32, label %_ZN4Json6Reader11getNextCharEv.exit.i

_ZN4Json6Reader11getNextCharEv.exit.i:            ; preds = %10, %_ZN4Json6Reader11getNextCharEv.exit.i.backedge
  %11 = phi ptr [ %12, %_ZN4Json6Reader11getNextCharEv.exit.i.backedge ], [ %8, %10 ]
  %12 = getelementptr inbounds i8, ptr %11, i64 1
  store ptr %12, ptr %2, align 8
  %13 = load i8, ptr %11, align 1
  %14 = icmp eq i8 %13, 42
  br i1 %14, label %15, label %18

15:                                               ; preds = %_ZN4Json6Reader11getNextCharEv.exit.i
  %16 = load i8, ptr %12, align 1
  %17 = icmp eq i8 %16, 47
  %.not.i = icmp eq ptr %12, %6
  %or.cond.i = select i1 %17, i1 true, i1 %.not.i
  br i1 %or.cond.i, label %._crit_edge.i, label %_ZN4Json6Reader11getNextCharEv.exit.i.backedge

18:                                               ; preds = %_ZN4Json6Reader11getNextCharEv.exit.i
  %.not.old.i = icmp eq ptr %12, %6
  br i1 %.not.old.i, label %_ZN4Json6Reader17readCStyleCommentEv.exit.thread32, label %_ZN4Json6Reader11getNextCharEv.exit.i.backedge

_ZN4Json6Reader11getNextCharEv.exit.i.backedge:   ; preds = %18, %15
  br label %_ZN4Json6Reader11getNextCharEv.exit.i, !llvm.loop !60

._crit_edge.i:                                    ; preds = %15
  %19 = icmp eq ptr %12, %6
  br i1 %19, label %_ZN4Json6Reader17readCStyleCommentEv.exit.thread32, label %_ZN4Json6Reader17readCStyleCommentEv.exit

.preheader:                                       ; preds = %_ZN4Json6Reader11getNextCharEv.exit, %_ZN4Json6Reader11getNextCharEv.exit.i16
  %20 = phi ptr [ %21, %_ZN4Json6Reader11getNextCharEv.exit.i16 ], [ %8, %_ZN4Json6Reader11getNextCharEv.exit ]
  %.not.i15 = icmp eq ptr %20, %6
  br i1 %.not.i15, label %_ZN4Json6Reader17readCStyleCommentEv.exit.thread, label %_ZN4Json6Reader11getNextCharEv.exit.i16

_ZN4Json6Reader11getNextCharEv.exit.i16:          ; preds = %.preheader
  %21 = getelementptr inbounds i8, ptr %20, i64 1
  store ptr %21, ptr %2, align 8
  %22 = load i8, ptr %20, align 1
  switch i8 %22, label %.preheader [
    i8 10, label %_ZN4Json6Reader17readCStyleCommentEv.exit.thread
    i8 13, label %23
  ]

23:                                               ; preds = %_ZN4Json6Reader11getNextCharEv.exit.i16
  %.not3.i = icmp eq ptr %21, %6
  br i1 %.not3.i, label %_ZN4Json6Reader17readCStyleCommentEv.exit.thread, label %24

24:                                               ; preds = %23
  %25 = load i8, ptr %21, align 1
  %26 = icmp eq i8 %25, 10
  br i1 %26, label %_ZN4Json6Reader11getNextCharEv.exit5.i, label %_ZN4Json6Reader17readCStyleCommentEv.exit.thread

_ZN4Json6Reader11getNextCharEv.exit5.i:           ; preds = %24
  %27 = getelementptr inbounds i8, ptr %20, i64 2
  store ptr %27, ptr %2, align 8
  br label %_ZN4Json6Reader17readCStyleCommentEv.exit.thread

_ZN4Json6Reader17readCStyleCommentEv.exit:        ; preds = %._crit_edge.i
  %28 = getelementptr inbounds i8, ptr %11, i64 2
  store ptr %28, ptr %2, align 8
  %29 = load i8, ptr %12, align 1
  %30 = icmp eq i8 %29, 47
  br i1 %30, label %_ZN4Json6Reader17readCStyleCommentEv.exit.thread, label %_ZN4Json6Reader17readCStyleCommentEv.exit.thread32

_ZN4Json6Reader17readCStyleCommentEv.exit.thread: ; preds = %_ZN4Json6Reader11getNextCharEv.exit.i16, %.preheader, %_ZN4Json6Reader11getNextCharEv.exit5.i, %24, %23, %_ZN4Json6Reader17readCStyleCommentEv.exit
  %31 = phi ptr [ %27, %_ZN4Json6Reader11getNextCharEv.exit5.i ], [ %21, %24 ], [ %6, %23 ], [ %28, %_ZN4Json6Reader17readCStyleCommentEv.exit ], [ %21, %_ZN4Json6Reader11getNextCharEv.exit.i16 ], [ %6, %.preheader ]
  %32 = getelementptr inbounds i8, ptr %0, i64 266
  %33 = load i8, ptr %32, align 2
  %34 = trunc i8 %33 to i1
  br i1 %34, label %35, label %_ZN4Json6Reader17readCStyleCommentEv.exit.thread32

35:                                               ; preds = %_ZN4Json6Reader17readCStyleCommentEv.exit.thread
  %36 = getelementptr inbounds i8, ptr %0, i64 216
  %37 = load ptr, ptr %36, align 8
  %.not = icmp eq ptr %37, null
  br i1 %.not, label %51, label %38

38:                                               ; preds = %35
  %39 = icmp ult ptr %37, %4
  br i1 %39, label %.lr.ph.i, label %_ZN4JsonL15containsNewLineEPKcS1_.exit.thread

.lr.ph.i:                                         ; preds = %38, %42
  %40 = phi i1 [ %44, %42 ], [ true, %38 ]
  %.068.i = phi ptr [ %43, %42 ], [ %37, %38 ]
  %41 = load i8, ptr %.068.i, align 1
  switch i8 %41, label %42 [
    i8 10, label %_ZN4JsonL15containsNewLineEPKcS1_.exit
    i8 13, label %_ZN4JsonL15containsNewLineEPKcS1_.exit
  ]

42:                                               ; preds = %.lr.ph.i
  %43 = getelementptr inbounds i8, ptr %.068.i, i64 1
  %44 = icmp ult ptr %43, %4
  %exitcond.not.i = icmp eq ptr %43, %4
  br i1 %exitcond.not.i, label %_ZN4JsonL15containsNewLineEPKcS1_.exit, label %.lr.ph.i, !llvm.loop !61

_ZN4JsonL15containsNewLineEPKcS1_.exit:           ; preds = %.lr.ph.i, %.lr.ph.i, %42
  %.lcssa.i = phi i1 [ %44, %42 ], [ %40, %.lr.ph.i ], [ %40, %.lr.ph.i ]
  br i1 %.lcssa.i, label %51, label %_ZN4JsonL15containsNewLineEPKcS1_.exit.thread

_ZN4JsonL15containsNewLineEPKcS1_.exit.thread:    ; preds = %38, %_ZN4JsonL15containsNewLineEPKcS1_.exit
  %.not13 = icmp eq i8 %9, 42
  %45 = icmp ult ptr %4, %31
  %or.cond = select i1 %.not13, i1 %45, i1 false
  br i1 %or.cond, label %.lr.ph.i20, label %_ZN4JsonL15containsNewLineEPKcS1_.exit23.thread

.lr.ph.i20:                                       ; preds = %_ZN4JsonL15containsNewLineEPKcS1_.exit.thread, %48
  %46 = phi i1 [ %50, %48 ], [ true, %_ZN4JsonL15containsNewLineEPKcS1_.exit.thread ]
  %.068.i21 = phi ptr [ %49, %48 ], [ %4, %_ZN4JsonL15containsNewLineEPKcS1_.exit.thread ]
  %47 = load i8, ptr %.068.i21, align 1
  switch i8 %47, label %48 [
    i8 10, label %_ZN4JsonL15containsNewLineEPKcS1_.exit23
    i8 13, label %_ZN4JsonL15containsNewLineEPKcS1_.exit23
  ]

48:                                               ; preds = %.lr.ph.i20
  %49 = getelementptr inbounds i8, ptr %.068.i21, i64 1
  %50 = icmp ult ptr %49, %31
  %exitcond.not.i22 = icmp eq ptr %49, %31
  br i1 %exitcond.not.i22, label %_ZN4JsonL15containsNewLineEPKcS1_.exit23, label %.lr.ph.i20, !llvm.loop !61

_ZN4JsonL15containsNewLineEPKcS1_.exit23:         ; preds = %.lr.ph.i20, %.lr.ph.i20, %48
  %.lcssa.i19 = phi i1 [ %50, %48 ], [ %46, %.lr.ph.i20 ], [ %46, %.lr.ph.i20 ]
  br i1 %.lcssa.i19, label %51, label %_ZN4JsonL15containsNewLineEPKcS1_.exit23.thread

_ZN4JsonL15containsNewLineEPKcS1_.exit23.thread:  ; preds = %_ZN4JsonL15containsNewLineEPKcS1_.exit23, %_ZN4JsonL15containsNewLineEPKcS1_.exit.thread
  br label %51

51:                                               ; preds = %_ZN4JsonL15containsNewLineEPKcS1_.exit23, %_ZN4JsonL15containsNewLineEPKcS1_.exit23.thread, %_ZN4JsonL15containsNewLineEPKcS1_.exit, %35
  %.0 = phi i32 [ 0, %_ZN4JsonL15containsNewLineEPKcS1_.exit ], [ 1, %_ZN4JsonL15containsNewLineEPKcS1_.exit23.thread ], [ 0, %_ZN4JsonL15containsNewLineEPKcS1_.exit23 ], [ 0, %35 ]
  tail call void @_ZN4Json6Reader10addCommentEPKcS2_NS_16CommentPlacementE(ptr noundef nonnull align 8 dereferenceable(267) %0, ptr noundef nonnull %4, ptr noundef %31, i32 noundef %.0)
  br label %_ZN4Json6Reader17readCStyleCommentEv.exit.thread32

_ZN4Json6Reader17readCStyleCommentEv.exit.thread32: ; preds = %18, %1, %10, %._crit_edge.i, %_ZN4Json6Reader11getNextCharEv.exit, %_ZN4Json6Reader17readCStyleCommentEv.exit.thread, %51, %_ZN4Json6Reader17readCStyleCommentEv.exit
  %.0929 = phi i1 [ true, %_ZN4Json6Reader17readCStyleCommentEv.exit.thread ], [ true, %51 ], [ false, %_ZN4Json6Reader17readCStyleCommentEv.exit ], [ false, %_ZN4Json6Reader11getNextCharEv.exit ], [ false, %._crit_edge.i ], [ false, %10 ], [ false, %1 ], [ false, %18 ]
  ret i1 %.0929
}